; Function Attrs: mustprogress nofree norecurse nosync nounwind willreturn memory(read, argmem: readwrite, inaccessiblemem: none) uwtable
define internal noundef i32 @H5O__attr_get_crt_index(ptr noundef readonly captures(none) %0, ptr noundef writeonly captures(none) %1) #3 {
  %3 = load i8, ptr @H5O_init_g, align 1, !tbaa !3, !range !7, !noundef !8
  %4 = trunc nuw i8 %3 to i1
  %5 = load i8, ptr @H5_libterm_g, align 1, !range !7
  %6 = trunc nuw i8 %5 to i1
  %7 = xor i1 %6, true
  %8 = select i1 %4, i1 true, i1 %7
  br i1 %8, label %9, label %14, !prof !9

9:                                                ; preds = %2
  %10 = getelementptr inbounds nuw i8, ptr %0, i64 96
  %11 = load ptr, ptr %10, align 8, !tbaa !14
  %12 = getelementptr inbounds nuw i8, ptr %11, i64 72
  %13 = load i32, ptr %12, align 8, !tbaa !51
  store i32 %13, ptr %1, align 4, !tbaa !12
  br label %14

14:                                               ; preds = %9, %2
  ret i32 0
}